target datalayout = "e-m:e-p270:32:32-p271:32:32-p272:64:64-i64:64-i128:128-f80:128-n8:16:32:64-S128"
target triple = "x86_64-pc-linux-gnu"

%struct.evp_pkey_ctx_st = type { i32, ptr, ptr, ptr, ptr, %union.anon, %struct.anon.4, ptr, ptr, ptr, i32, i32, ptr, ptr, ptr, ptr, ptr, i8, ptr }
%union.anon = type { %struct.anon.0 }
%struct.anon.0 = type { ptr, ptr }
%struct.anon.4 = type { ptr, ptr, i64, i8 }
%struct.evp_pkey_st = type { i32, i32, ptr, ptr, ptr, %union.legacy_pkey_st, %union.legacy_pkey_st, %struct.CRYPTO_REF_COUNT, ptr, ptr, i32, i8, %struct.crypto_ex_data_st, ptr, ptr, i64, ptr, i64, %struct.anon.5 }
%union.legacy_pkey_st = type { ptr }
%struct.CRYPTO_REF_COUNT = type { i32 }
%struct.crypto_ex_data_st = type { ptr, ptr }
%struct.anon.5 = type { i32, i32, i32 }
%struct.evp_pkey_method_st = type { i32, i32, ptr, ptr, ptr, ptr, ptr, ptr, ptr, ptr, ptr, ptr, ptr, ptr, ptr, ptr, ptr, ptr, ptr, ptr, ptr, ptr, ptr, ptr, ptr, ptr, ptr, ptr, ptr, ptr, ptr, ptr, ptr }
%struct.evp_pkey_asn1_method_st = type { i32, i32, i64, ptr, ptr, ptr, ptr, ptr, ptr, ptr, ptr, ptr, ptr, ptr, ptr, ptr, ptr, ptr, ptr, ptr, ptr, ptr, ptr, ptr, ptr, ptr, ptr, ptr, ptr, ptr, ptr, ptr, ptr, ptr, ptr, ptr, ptr, ptr, ptr, ptr, ptr }

@.str = private unnamed_addr constant [36 x i8] c"../openssl/crypto/evp/pmeth_check.c\00", align 1
@__func__.evp_pkey_param_check_combined = private unnamed_addr constant [30 x i8] c"evp_pkey_param_check_combined\00", align 1
@__func__.try_provided_check = private unnamed_addr constant [19 x i8] c"try_provided_check\00", align 1

; Function Attrs: nounwind uwtable
define internal i32 @try_provided_check(ptr noundef %0, i32 noundef %1, i32 noundef %2) #0 {
  %4 = alloca i32, align 4
  %5 = alloca ptr, align 8
  %6 = alloca i32, align 4
  %7 = alloca i32, align 4
  %8 = alloca ptr, align 8
  %9 = alloca ptr, align 8
  %10 = alloca i32, align 4
  store ptr %0, ptr %5, align 8, !tbaa !3
  store i32 %1, ptr %6, align 4, !tbaa !8
  store i32 %2, ptr %7, align 4, !tbaa !8
  call void @llvm.lifetime.start.p0(i64 8, ptr %8) #3
  call void @llvm.lifetime.start.p0(i64 8, ptr %9) #3
  %11 = load ptr, ptr %5, align 8, !tbaa !3
  %12 = getelementptr inbounds nuw %struct.evp_pkey_ctx_st, ptr %11, i32 0, i32 4
  %13 = load ptr, ptr %12, align 8, !tbaa !40
  %14 = icmp eq ptr %13, null
  br i1 %14, label %15, label %16

15:                                               ; preds = %3
  store i32 -1, ptr %4, align 4
  store i32 1, ptr %10, align 4
  br label %39

16:                                               ; preds = %3
  %17 = load ptr, ptr %5, align 8, !tbaa !3
  %18 = getelementptr inbounds nuw %struct.evp_pkey_ctx_st, ptr %17, i32 0, i32 4
  %19 = load ptr, ptr %18, align 8, !tbaa !40
  store ptr %19, ptr %8, align 8, !tbaa !41
  %20 = load ptr, ptr %5, align 8, !tbaa !3
  %21 = getelementptr inbounds nuw %struct.evp_pkey_ctx_st, ptr %20, i32 0, i32 14
  %22 = load ptr, ptr %21, align 8, !tbaa !10
  %23 = load ptr, ptr %5, align 8, !tbaa !3
  %24 = getelementptr inbounds nuw %struct.evp_pkey_ctx_st, ptr %23, i32 0, i32 1
  %25 = load ptr, ptr %24, align 8, !tbaa !42
  %26 = load ptr, ptr %5, align 8, !tbaa !3
  %27 = getelementptr inbounds nuw %struct.evp_pkey_ctx_st, ptr %26, i32 0, i32 2
  %28 = load ptr, ptr %27, align 8, !tbaa !43
  %29 = call ptr @evp_pkey_export_to_provider(ptr noundef %22, ptr noundef %25, ptr noundef %8, ptr noundef %28)
  store ptr %29, ptr %9, align 8, !tbaa !44
  %30 = load ptr, ptr %9, align 8, !tbaa !44
  %31 = icmp eq ptr %30, null
  br i1 %31, label %32, label %33

32:                                               ; preds = %16
  call void @ERR_new()
  call void @ERR_set_debug(ptr noundef @.str, i32 noundef 40, ptr noundef @__func__.try_provided_check)
  call void (i32, i32, ptr, ...) @ERR_set_error(i32 noundef 6, i32 noundef 134, ptr noundef null)
  store i32 0, ptr %4, align 4
  store i32 1, ptr %10, align 4
  br label %39

33:                                               ; preds = %16
  %34 = load ptr, ptr %8, align 8, !tbaa !41
  %35 = load ptr, ptr %9, align 8, !tbaa !44
  %36 = load i32, ptr %6, align 4, !tbaa !8
  %37 = load i32, ptr %7, align 4, !tbaa !8
  %38 = call i32 @evp_keymgmt_validate(ptr noundef %34, ptr noundef %35, i32 noundef %36, i32 noundef %37)
  store i32 %38, ptr %4, align 4
  store i32 1, ptr %10, align 4
  br label %39

39:                                               ; preds = %33, %32, %15
  call void @llvm.lifetime.end.p0(i64 8, ptr %9) #3
  call void @llvm.lifetime.end.p0(i64 8, ptr %8) #3
  %40 = load i32, ptr %4, align 4
  ret i32 %40
}

; Function Attrs: nounwind uwtable
define internal i32 @evp_pkey_param_check_combined(ptr noundef %0, i32 noundef %1) #0 {
  %3 = alloca i32, align 4
  %4 = alloca ptr, align 8
  %5 = alloca i32, align 4
  %6 = alloca ptr, align 8
  %7 = alloca i32, align 4
  %8 = alloca i32, align 4
  store ptr %0, ptr %4, align 8, !tbaa !3
  store i32 %1, ptr %5, align 4, !tbaa !8
  call void @llvm.lifetime.start.p0(i64 8, ptr %6) #3
  %9 = load ptr, ptr %4, align 8, !tbaa !3
  %10 = getelementptr inbounds nuw %struct.evp_pkey_ctx_st, ptr %9, i32 0, i32 14
  %11 = load ptr, ptr %10, align 8, !tbaa !10
  store ptr %11, ptr %6, align 8, !tbaa !22
  call void @llvm.lifetime.start.p0(i64 4, ptr %7) #3
  %12 = load ptr, ptr %6, align 8, !tbaa !22
  %13 = icmp eq ptr %12, null
  br i1 %13, label %14, label %15

14:                                               ; preds = %2
  call void @ERR_new()
  call void @ERR_set_debug(ptr noundef @.str, i32 noundef 97, ptr noundef @__func__.evp_pkey_param_check_combined)
  call void (i32, i32, ptr, ...) @ERR_set_error(i32 noundef 6, i32 noundef 154, ptr noundef null)
  store i32 0, ptr %3, align 4
  store i32 1, ptr %8, align 4
  br label %65

15:                                               ; preds = %2
  %16 = load ptr, ptr %4, align 8, !tbaa !3
  %17 = load i32, ptr %5, align 4, !tbaa !8
  %18 = call i32 @try_provided_check(ptr noundef %16, i32 noundef 132, i32 noundef %17)
  store i32 %18, ptr %7, align 4, !tbaa !8
  %19 = icmp ne i32 %18, -1
  br i1 %19, label %20, label %22

20:                                               ; preds = %15
  %21 = load i32, ptr %7, align 4, !tbaa !8
  store i32 %21, ptr %3, align 4
  store i32 1, ptr %8, align 4
  br label %65

22:                                               ; preds = %15
  %23 = load ptr, ptr %6, align 8, !tbaa !22
  %24 = getelementptr inbounds nuw %struct.evp_pkey_st, ptr %23, i32 0, i32 0
  %25 = load i32, ptr %24, align 8, !tbaa !23
  %26 = icmp eq i32 %25, 0
  br i1 %26, label %27, label %28

27:                                               ; preds = %22
  br label %64

28:                                               ; preds = %22
  %29 = load ptr, ptr %4, align 8, !tbaa !3
  %30 = getelementptr inbounds nuw %struct.evp_pkey_ctx_st, ptr %29, i32 0, i32 12
  %31 = load ptr, ptr %30, align 8, !tbaa !32
  %32 = getelementptr inbounds nuw %struct.evp_pkey_method_st, ptr %31, i32 0, i32 31
  %33 = load ptr, ptr %32, align 8, !tbaa !38
  %34 = icmp ne ptr %33, null
  br i1 %34, label %35, label %43

35:                                               ; preds = %28
  %36 = load ptr, ptr %4, align 8, !tbaa !3
  %37 = getelementptr inbounds nuw %struct.evp_pkey_ctx_st, ptr %36, i32 0, i32 12
  %38 = load ptr, ptr %37, align 8, !tbaa !32
  %39 = getelementptr inbounds nuw %struct.evp_pkey_method_st, ptr %38, i32 0, i32 31
  %40 = load ptr, ptr %39, align 8, !tbaa !38
  %41 = load ptr, ptr %6, align 8, !tbaa !22
  %42 = call i32 %40(ptr noundef %41)
  store i32 %42, ptr %3, align 4
  store i32 1, ptr %8, align 4
  br label %65

43:                                               ; preds = %28
  %44 = load ptr, ptr %6, align 8, !tbaa !22
  %45 = getelementptr inbounds nuw %struct.evp_pkey_st, ptr %44, i32 0, i32 2
  %46 = load ptr, ptr %45, align 8, !tbaa !35
  %47 = icmp eq ptr %46, null
  br i1 %47, label %55, label %48

48:                                               ; preds = %43
  %49 = load ptr, ptr %6, align 8, !tbaa !22
  %50 = getelementptr inbounds nuw %struct.evp_pkey_st, ptr %49, i32 0, i32 2
  %51 = load ptr, ptr %50, align 8, !tbaa !35
  %52 = getelementptr inbounds nuw %struct.evp_pkey_asn1_method_st, ptr %51, i32 0, i32 31
  %53 = load ptr, ptr %52, align 8, !tbaa !39
  %54 = icmp eq ptr %53, null
  br i1 %54, label %55, label %56

55:                                               ; preds = %48, %43
  br label %64

56:                                               ; preds = %48
  %57 = load ptr, ptr %6, align 8, !tbaa !22
  %58 = getelementptr inbounds nuw %struct.evp_pkey_st, ptr %57, i32 0, i32 2
  %59 = load ptr, ptr %58, align 8, !tbaa !35
  %60 = getelementptr inbounds nuw %struct.evp_pkey_asn1_method_st, ptr %59, i32 0, i32 31
  %61 = load ptr, ptr %60, align 8, !tbaa !39
  %62 = load ptr, ptr %6, align 8, !tbaa !22
  %63 = call i32 %61(ptr noundef %62)
  store i32 %63, ptr %3, align 4
  store i32 1, ptr %8, align 4
  br label %65

64:                                               ; preds = %55, %27
  call void @ERR_new()
  call void @ERR_set_debug(ptr noundef @.str, i32 noundef 122, ptr noundef @__func__.evp_pkey_param_check_combined)
  call void (i32, i32, ptr, ...) @ERR_set_error(i32 noundef 6, i32 noundef 150, ptr noundef null)
  store i32 -2, ptr %3, align 4
  store i32 1, ptr %8, align 4
  br label %65

65:                                               ; preds = %64, %56, %35, %20, %14
  call void @llvm.lifetime.end.p0(i64 4, ptr %7) #3
  call void @llvm.lifetime.end.p0(i64 8, ptr %6) #3
  %66 = load i32, ptr %3, align 4
  ret i32 %66
}