; Function Attrs: nounwind uwtable
define internal fastcc i32 @evp_pkey_param_check_combined(ptr noundef readonly captures(none) %0, i32 noundef range(i32 0, 2) %1) unnamed_addr #0 {
  %3 = alloca ptr, align 8
  %4 = getelementptr inbounds nuw i8, ptr %0, i64 136
  %5 = load ptr, ptr %4, align 8, !tbaa !3
  %6 = icmp eq ptr %5, null
  br i1 %6, label %7, label %8

7:                                                ; preds = %2
  tail call void @ERR_new() #3
  tail call void @ERR_set_debug(ptr noundef nonnull @.str, i32 noundef 97, ptr noundef nonnull @__func__.evp_pkey_param_check_combined) #3
  tail call void (i32, i32, ptr, ...) @ERR_set_error(i32 noundef 6, i32 noundef 154, ptr noundef null) #3
  br label %42

8:                                                ; preds = %2
  call void @llvm.lifetime.start.p0(i64 8, ptr nonnull %3) #3
  %9 = getelementptr inbounds nuw i8, ptr %0, i64 32
  %10 = load ptr, ptr %9, align 8, !tbaa !19
  %11 = icmp eq ptr %10, null
  br i1 %11, label %try_provided_check.exit.thread, label %12

try_provided_check.exit.thread:                   ; preds = %8
  call void @llvm.lifetime.end.p0(i64 8, ptr nonnull %3) #3
  br label %21

12:                                               ; preds = %8
  store ptr %10, ptr %3, align 8, !tbaa !20
  %13 = getelementptr inbounds nuw i8, ptr %0, i64 8
  %14 = load ptr, ptr %13, align 8, !tbaa !21
  %15 = getelementptr inbounds nuw i8, ptr %0, i64 16
  %16 = load ptr, ptr %15, align 8, !tbaa !22
  %17 = call ptr @evp_pkey_export_to_provider(ptr noundef nonnull %5, ptr noundef %14, ptr noundef nonnull %3, ptr noundef %16) #3
  %18 = icmp eq ptr %17, null
  br i1 %18, label %try_provided_check.exit.thread21, label %try_provided_check.exit

try_provided_check.exit.thread21:                 ; preds = %12
  call void @ERR_new() #3
  call void @ERR_set_debug(ptr noundef nonnull @.str, i32 noundef 40, ptr noundef nonnull @__func__.try_provided_check) #3
  call void (i32, i32, ptr, ...) @ERR_set_error(i32 noundef 6, i32 noundef 134, ptr noundef null) #3
  call void @llvm.lifetime.end.p0(i64 8, ptr nonnull %3) #3
  br label %42

try_provided_check.exit:                          ; preds = %12
  %19 = load ptr, ptr %3, align 8, !tbaa !20
  %20 = call i32 @evp_keymgmt_validate(ptr noundef %19, ptr noundef nonnull %17, i32 noundef 132, i32 noundef range(i32 0, 2) %1) #3
  call void @llvm.lifetime.end.p0(i64 8, ptr nonnull %3) #3
  %.not = icmp eq i32 %20, -1
  br i1 %.not, label %21, label %42

21:                                               ; preds = %try_provided_check.exit.thread, %try_provided_check.exit
  %22 = load i32, ptr %5, align 8, !tbaa !23
  %23 = icmp eq i32 %22, 0
  br i1 %23, label %41, label %24

24:                                               ; preds = %21
  %25 = getelementptr inbounds nuw i8, ptr %0, i64 120
  %26 = load ptr, ptr %25, align 8, !tbaa !32
  %27 = getelementptr inbounds nuw i8, ptr %26, i64 240
  %28 = load ptr, ptr %27, align 8, !tbaa !38
  %.not18 = icmp eq ptr %28, null
  br i1 %.not18, label %31, label %29

29:                                               ; preds = %24
  %30 = call i32 %28(ptr noundef nonnull %5) #3
  br label %42

31:                                               ; preds = %24
  %32 = getelementptr inbounds nuw i8, ptr %5, i64 8
  %33 = load ptr, ptr %32, align 8, !tbaa !35
  %34 = icmp eq ptr %33, null
  br i1 %34, label %41, label %35

35:                                               ; preds = %31
  %36 = getelementptr inbounds nuw i8, ptr %33, i64 240
  %37 = load ptr, ptr %36, align 8, !tbaa !39
  %38 = icmp eq ptr %37, null
  br i1 %38, label %41, label %39

39:                                               ; preds = %35
  %40 = call i32 %37(ptr noundef nonnull %5) #3
  br label %42

41:                                               ; preds = %31, %35, %21
  call void @ERR_new() #3
  call void @ERR_set_debug(ptr noundef nonnull @.str, i32 noundef 122, ptr noundef nonnull @__func__.evp_pkey_param_check_combined) #3
  call void (i32, i32, ptr, ...) @ERR_set_error(i32 noundef 6, i32 noundef 150, ptr noundef null) #3
  br label %42

42:                                               ; preds = %try_provided_check.exit.thread21, %try_provided_check.exit, %41, %39, %29, %7
  %.0 = phi i32 [ 0, %7 ], [ -2, %41 ], [ %30, %29 ], [ %40, %39 ], [ %20, %try_provided_check.exit ], [ 0, %try_provided_check.exit.thread21 ]
  ret i32 %.0
}